target datalayout = "e-m:e-p270:32:32-p271:32:32-p272:64:64-i64:64-i128:128-f80:128-n8:16:32:64-S128"
target triple = "x86_64-pc-linux-gnu"

; Function Attrs: nounwind uwtable
define internal ptr @dup_and_filter_pattern(ptr noundef %0) #0 {
  %2 = alloca ptr, align 8
  %3 = alloca ptr, align 8
  %4 = alloca ptr, align 8
  %5 = alloca i64, align 8
  %6 = alloca ptr, align 8
  store ptr %0, ptr %2, align 8, !tbaa !13
  call void @llvm.lifetime.start.p0(i64 8, ptr %3) #12
  call void @llvm.lifetime.start.p0(i64 8, ptr %4) #12
  call void @llvm.lifetime.start.p0(i64 8, ptr %5) #12
  store i64 0, ptr %5, align 8, !tbaa !19
  call void @llvm.lifetime.start.p0(i64 8, ptr %6) #12
  %7 = load ptr, ptr %2, align 8, !tbaa !13
  %8 = call ptr @xstrdup(ptr noundef %7)
  store ptr %8, ptr %6, align 8, !tbaa !13
  %9 = load ptr, ptr %6, align 8, !tbaa !13
  store ptr %9, ptr %3, align 8, !tbaa !13
  %10 = load ptr, ptr %6, align 8, !tbaa !13
  store ptr %10, ptr %4, align 8, !tbaa !13
  br label %11

11:                                               ; preds = %23, %1
  %12 = load ptr, ptr %4, align 8, !tbaa !13
  %13 = load i8, ptr %12, align 1, !tbaa !15
  %14 = icmp ne i8 %13, 0
  br i1 %14, label %15, label %33

15:                                               ; preds = %11
  %16 = load ptr, ptr %4, align 8, !tbaa !13
  %17 = load i8, ptr %16, align 1, !tbaa !15
  %18 = sext i8 %17 to i32
  %19 = icmp eq i32 %18, 92
  br i1 %19, label %20, label %23

20:                                               ; preds = %15
  %21 = load ptr, ptr %4, align 8, !tbaa !13
  %22 = getelementptr inbounds nuw i8, ptr %21, i32 1
  store ptr %22, ptr %4, align 8, !tbaa !13
  br label %23

23:                                               ; preds = %20, %15
  %24 = load ptr, ptr %4, align 8, !tbaa !13
  %25 = load i8, ptr %24, align 1, !tbaa !15
  %26 = load ptr, ptr %3, align 8, !tbaa !13
  store i8 %25, ptr %26, align 1, !tbaa !15
  %27 = load ptr, ptr %3, align 8, !tbaa !13
  %28 = getelementptr inbounds nuw i8, ptr %27, i32 1
  store ptr %28, ptr %3, align 8, !tbaa !13
  %29 = load ptr, ptr %4, align 8, !tbaa !13
  %30 = getelementptr inbounds nuw i8, ptr %29, i32 1
  store ptr %30, ptr %4, align 8, !tbaa !13
  %31 = load i64, ptr %5, align 8, !tbaa !19
  %32 = add i64 %31, 1
  store i64 %32, ptr %5, align 8, !tbaa !19
  br label %11, !llvm.loop !282

33:                                               ; preds = %11
  %34 = load ptr, ptr %3, align 8, !tbaa !13
  store i8 0, ptr %34, align 1, !tbaa !15
  %35 = load i64, ptr %5, align 8, !tbaa !19
  %36 = icmp ugt i64 %35, 2
  br i1 %36, label %37, label %52

37:                                               ; preds = %33
  %38 = load ptr, ptr %3, align 8, !tbaa !13
  %39 = getelementptr inbounds i8, ptr %38, i64 -1
  %40 = load i8, ptr %39, align 1, !tbaa !15
  %41 = sext i8 %40 to i32
  %42 = icmp eq i32 %41, 42
  br i1 %42, label %43, label %52

43:                                               ; preds = %37
  %44 = load ptr, ptr %3, align 8, !tbaa !13
  %45 = getelementptr inbounds i8, ptr %44, i64 -2
  %46 = load i8, ptr %45, align 1, !tbaa !15
  %47 = sext i8 %46 to i32
  %48 = icmp eq i32 %47, 47
  br i1 %48, label %49, label %52

49:                                               ; preds = %43
  %50 = load ptr, ptr %3, align 8, !tbaa !13
  %51 = getelementptr inbounds i8, ptr %50, i64 -2
  store i8 0, ptr %51, align 1, !tbaa !15
  br label %52

52:                                               ; preds = %49, %43, %37, %33
  %53 = load ptr, ptr %6, align 8, !tbaa !13
  call void @llvm.lifetime.end.p0(i64 8, ptr %6) #12
  call void @llvm.lifetime.end.p0(i64 8, ptr %5) #12
  call void @llvm.lifetime.end.p0(i64 8, ptr %4) #12
  call void @llvm.lifetime.end.p0(i64 8, ptr %3) #12
  ret ptr %53
}