; Function Attrs: nounwind uwtable
define internal fastcc ptr @dup_and_filter_pattern(ptr noundef %0) unnamed_addr #0 {
  %2 = tail call ptr @xstrdup(ptr noundef %0) #27
  br label %3

3:                                                ; preds = %7, %1
  %.017 = phi ptr [ %2, %1 ], [ %10, %7 ]
  %.016 = phi i64 [ 0, %1 ], [ %11, %7 ]
  %.0 = phi ptr [ %2, %1 ], [ %9, %7 ]
  %4 = load i8, ptr %.017, align 1, !tbaa !4
  switch i8 %4, label %7 [
    i8 0, label %12
    i8 92, label %5
  ]

5:                                                ; preds = %3
  %6 = getelementptr inbounds nuw i8, ptr %.017, i64 1
  %.pre = load i8, ptr %6, align 1, !tbaa !4
  br label %7

7:                                                ; preds = %3, %5
  %8 = phi i8 [ %.pre, %5 ], [ %4, %3 ]
  %.1 = phi ptr [ %6, %5 ], [ %.017, %3 ]
  store i8 %8, ptr %.0, align 1, !tbaa !4
  %9 = getelementptr inbounds nuw i8, ptr %.0, i64 1
  %10 = getelementptr inbounds nuw i8, ptr %.1, i64 1
  %11 = add i64 %.016, 1
  br label %3, !llvm.loop !254

12:                                               ; preds = %3
  store i8 0, ptr %.0, align 1, !tbaa !4
  %13 = icmp ugt i64 %.016, 2
  br i1 %13, label %14, label %23

14:                                               ; preds = %12
  %15 = getelementptr inbounds i8, ptr %.0, i64 -1
  %16 = load i8, ptr %15, align 1, !tbaa !4
  %17 = icmp eq i8 %16, 42
  br i1 %17, label %18, label %23

18:                                               ; preds = %14
  %19 = getelementptr inbounds i8, ptr %.0, i64 -2
  %20 = load i8, ptr %19, align 1, !tbaa !4
  %21 = icmp eq i8 %20, 47
  br i1 %21, label %22, label %23

22:                                               ; preds = %18
  store i8 0, ptr %19, align 1, !tbaa !4
  br label %23

23:                                               ; preds = %22, %18, %14, %12
  ret ptr %2
}